target datalayout = "e-m:e-p270:32:32-p271:32:32-p272:64:64-i64:64-i128:128-f80:128-n8:16:32:64-S128"
target triple = "x86_64-pc-linux-gnu"

%struct.ec_group_st = type { ptr, ptr, ptr, ptr, i32, i32, i32, i32, ptr, i64, ptr, [6 x i32], ptr, ptr, i32, ptr, ptr, ptr, ptr, i32, %union.anon, ptr, ptr }
%union.anon = type { ptr }

; Function Attrs: nounwind uwtable
define i32 @ossl_ec_GFp_simple_group_init(ptr noundef %0) #0 {
  %2 = alloca i32, align 4
  %3 = alloca ptr, align 8
  store ptr %0, ptr %3, align 8, !tbaa !3
  %4 = call ptr @BN_new()
  %5 = load ptr, ptr %3, align 8, !tbaa !3
  %6 = getelementptr inbounds nuw %struct.ec_group_st, ptr %5, i32 0, i32 10
  store ptr %4, ptr %6, align 8, !tbaa !8
  %7 = call ptr @BN_new()
  %8 = load ptr, ptr %3, align 8, !tbaa !3
  %9 = getelementptr inbounds nuw %struct.ec_group_st, ptr %8, i32 0, i32 12
  store ptr %7, ptr %9, align 8, !tbaa !18
  %10 = call ptr @BN_new()
  %11 = load ptr, ptr %3, align 8, !tbaa !3
  %12 = getelementptr inbounds nuw %struct.ec_group_st, ptr %11, i32 0, i32 13
  store ptr %10, ptr %12, align 8, !tbaa !19
  %13 = load ptr, ptr %3, align 8, !tbaa !3
  %14 = getelementptr inbounds nuw %struct.ec_group_st, ptr %13, i32 0, i32 10
  %15 = load ptr, ptr %14, align 8, !tbaa !8
  %16 = icmp eq ptr %15, null
  br i1 %16, label %27, label %17

17:                                               ; preds = %1
  %18 = load ptr, ptr %3, align 8, !tbaa !3
  %19 = getelementptr inbounds nuw %struct.ec_group_st, ptr %18, i32 0, i32 12
  %20 = load ptr, ptr %19, align 8, !tbaa !18
  %21 = icmp eq ptr %20, null
  br i1 %21, label %27, label %22

22:                                               ; preds = %17
  %23 = load ptr, ptr %3, align 8, !tbaa !3
  %24 = getelementptr inbounds nuw %struct.ec_group_st, ptr %23, i32 0, i32 13
  %25 = load ptr, ptr %24, align 8, !tbaa !19
  %26 = icmp eq ptr %25, null
  br i1 %26, label %27, label %37

27:                                               ; preds = %22, %17, %1
  %28 = load ptr, ptr %3, align 8, !tbaa !3
  %29 = getelementptr inbounds nuw %struct.ec_group_st, ptr %28, i32 0, i32 10
  %30 = load ptr, ptr %29, align 8, !tbaa !8
  call void @BN_free(ptr noundef %30)
  %31 = load ptr, ptr %3, align 8, !tbaa !3
  %32 = getelementptr inbounds nuw %struct.ec_group_st, ptr %31, i32 0, i32 12
  %33 = load ptr, ptr %32, align 8, !tbaa !18
  call void @BN_free(ptr noundef %33)
  %34 = load ptr, ptr %3, align 8, !tbaa !3
  %35 = getelementptr inbounds nuw %struct.ec_group_st, ptr %34, i32 0, i32 13
  %36 = load ptr, ptr %35, align 8, !tbaa !19
  call void @BN_free(ptr noundef %36)
  store i32 0, ptr %2, align 4
  br label %40

37:                                               ; preds = %22
  %38 = load ptr, ptr %3, align 8, !tbaa !3
  %39 = getelementptr inbounds nuw %struct.ec_group_st, ptr %38, i32 0, i32 14
  store i32 0, ptr %39, align 8, !tbaa !20
  store i32 1, ptr %2, align 4
  br label %40

40:                                               ; preds = %37, %27
  %41 = load i32, ptr %2, align 4
  ret i32 %41
}