; Function Attrs: nounwind uwtable
define range(i32 0, 2) i32 @ossl_ec_GFp_simple_group_init(ptr noundef captures(none) initializes((64, 72), (96, 112)) %0) #1 {
  %2 = tail call ptr @BN_new() #4
  %3 = getelementptr inbounds nuw i8, ptr %0, i64 64
  store ptr %2, ptr %3, align 8, !tbaa !3
  %4 = tail call ptr @BN_new() #4
  %5 = getelementptr inbounds nuw i8, ptr %0, i64 96
  store ptr %4, ptr %5, align 8, !tbaa !16
  %6 = tail call ptr @BN_new() #4
  %7 = getelementptr inbounds nuw i8, ptr %0, i64 104
  store ptr %6, ptr %7, align 8, !tbaa !17
  %8 = load ptr, ptr %3, align 8, !tbaa !3
  %9 = icmp eq ptr %8, null
  br i1 %9, label %14, label %10

10:                                               ; preds = %1
  %11 = load ptr, ptr %5, align 8, !tbaa !16
  %12 = icmp eq ptr %11, null
  %13 = icmp eq ptr %6, null
  %or.cond = select i1 %12, i1 true, i1 %13
  br i1 %or.cond, label %14, label %17

14:                                               ; preds = %10, %1
  tail call void @BN_free(ptr noundef %8) #4
  %15 = load ptr, ptr %5, align 8, !tbaa !16
  tail call void @BN_free(ptr noundef %15) #4
  %16 = load ptr, ptr %7, align 8, !tbaa !17
  tail call void @BN_free(ptr noundef %16) #4
  br label %19

17:                                               ; preds = %10
  %18 = getelementptr inbounds nuw i8, ptr %0, i64 112
  store i32 0, ptr %18, align 8, !tbaa !18
  br label %19

19:                                               ; preds = %17, %14
  %.0 = phi i32 [ 0, %14 ], [ 1, %17 ]
  ret i32 %.0
}